; Function Attrs: nounwind uwtable
define internal fastcc void @deflate(ptr noundef %0, ptr noundef %1, ptr noundef nonnull %2, i64 noundef range(i64 5, 7) %3) unnamed_addr #0 {
  %5 = alloca %struct.nghttp2_nv, align 8
  %6 = alloca i32, align 4
  br label %7

7:                                                ; preds = %4, %7
  %.060 = phi i64 [ 0, %4 ], [ %14, %7 ]
  %.05059 = phi i64 [ 0, %4 ], [ %15, %7 ]
  %8 = getelementptr inbounds nuw %struct.nghttp2_nv, ptr %2, i64 %.05059
  %9 = getelementptr inbounds nuw i8, ptr %8, i64 16
  %10 = load i64, ptr %9, align 8, !tbaa !13
  %11 = getelementptr inbounds nuw i8, ptr %8, i64 24
  %12 = load i64, ptr %11, align 8, !tbaa !17
  %13 = add i64 %10, %.060
  %14 = add i64 %13, %12
  %15 = add nuw nsw i64 %.05059, 1
  %exitcond.not = icmp eq i64 %15, %3
  br i1 %exitcond.not, label %16, label %7, !llvm.loop !18

16:                                               ; preds = %7
  %17 = tail call i32 (ptr, ...) @printf(ptr noundef nonnull dereferenceable(1) @.str.15, i64 noundef %14)
  br label %18

18:                                               ; preds = %16, %18
  %.161 = phi i64 [ 0, %16 ], [ %32, %18 ]
  %19 = getelementptr inbounds nuw %struct.nghttp2_nv, ptr %2, i64 %.161
  %20 = load ptr, ptr %19, align 8, !tbaa !20
  %21 = getelementptr inbounds nuw i8, ptr %19, i64 16
  %22 = load i64, ptr %21, align 8, !tbaa !13
  %23 = load ptr, ptr @stdout, align 8, !tbaa !4
  %24 = tail call i64 @fwrite(ptr noundef %20, i64 noundef 1, i64 noundef %22, ptr noundef %23)
  %25 = tail call i32 (ptr, ...) @printf(ptr noundef nonnull dereferenceable(1) @.str.16)
  %26 = getelementptr inbounds nuw i8, ptr %19, i64 8
  %27 = load ptr, ptr %26, align 8, !tbaa !21
  %28 = getelementptr inbounds nuw i8, ptr %19, i64 24
  %29 = load i64, ptr %28, align 8, !tbaa !17
  %30 = load ptr, ptr @stdout, align 8, !tbaa !4
  %31 = tail call i64 @fwrite(ptr noundef %27, i64 noundef 1, i64 noundef %29, ptr noundef %30)
  %putchar55 = tail call i32 @putchar(i32 10)
  %32 = add nuw nsw i64 %.161, 1
  %exitcond64.not = icmp eq i64 %32, %3
  br i1 %exitcond64.not, label %33, label %18, !llvm.loop !22

33:                                               ; preds = %18
  %34 = tail call i64 @nghttp2_hd_deflate_bound(ptr noundef %0, ptr noundef nonnull %2, i64 noundef %3) #9
  %35 = tail call noalias ptr @malloc(i64 noundef %34) #12
  %36 = tail call i64 @nghttp2_hd_deflate_hd2(ptr noundef %0, ptr noundef %35, i64 noundef %34, ptr noundef nonnull %2, i64 noundef %3) #9
  %37 = icmp slt i64 %36, 0
  br i1 %37, label %38, label %43

38:                                               ; preds = %33
  %39 = load ptr, ptr @stderr, align 8, !tbaa !4
  %40 = trunc i64 %36 to i32
  %41 = tail call ptr @nghttp2_strerror(i32 noundef %40) #9
  %42 = tail call i32 (ptr, ptr, ...) @fprintf(ptr noundef %39, ptr noundef nonnull @.str.18, ptr noundef %41) #10
  tail call void @free(ptr noundef %35) #9
  tail call void @exit(i32 noundef 1) #11
  unreachable

43:                                               ; preds = %33
  %44 = icmp eq i64 %14, 0
  %45 = uitofp nneg i64 %36 to double
  %46 = uitofp i64 %14 to double
  %47 = fdiv double %45, %46
  %48 = select i1 %44, double 0.000000e+00, double %47
  %49 = tail call i32 (ptr, ...) @printf(ptr noundef nonnull dereferenceable(1) @.str.19, i64 noundef %36, double noundef %48)
  %.not = icmp eq i64 %36, 0
  br i1 %.not, label %._crit_edge, label %.lr.ph

.lr.ph:                                           ; preds = %43, %63
  %.262 = phi i64 [ %59, %63 ], [ 0, %43 ]
  %50 = and i64 %.262, 15
  %51 = icmp eq i64 %50, 0
  br i1 %51, label %52, label %54

52:                                               ; preds = %.lr.ph
  %53 = tail call i32 (ptr, ...) @printf(ptr noundef nonnull dereferenceable(1) @.str.20, i64 noundef %.262)
  br label %54

54:                                               ; preds = %52, %.lr.ph
  %55 = getelementptr inbounds nuw i8, ptr %35, i64 %.262
  %56 = load i8, ptr %55, align 1, !tbaa !23
  %57 = zext i8 %56 to i32
  %58 = tail call i32 (ptr, ...) @printf(ptr noundef nonnull dereferenceable(1) @.str.21, i32 noundef %57)
  %59 = add nuw i64 %.262, 1
  %60 = and i64 %59, 15
  %61 = icmp eq i64 %60, 0
  br i1 %61, label %62, label %63

62:                                               ; preds = %54
  %putchar = tail call i32 @putchar(i32 10)
  br label %63

63:                                               ; preds = %54, %62
  %exitcond65.not = icmp eq i64 %59, %36
  br i1 %exitcond65.not, label %._crit_edge, label %.lr.ph, !llvm.loop !24

._crit_edge:                                      ; preds = %63, %43
  %puts = tail call i32 @puts(ptr nonnull dereferenceable(1) @str)
  call void @llvm.lifetime.start.p0(i64 40, ptr nonnull %5) #9
  call void @llvm.lifetime.start.p0(i64 4, ptr nonnull %6) #9
  store i32 0, ptr %6, align 4, !tbaa !25
  %64 = call i64 @nghttp2_hd_inflate_hd3(ptr noundef %1, ptr noundef nonnull %5, ptr noundef nonnull %6, ptr noundef %35, i64 noundef range(i64 0, -9223372036854775808) %36, i32 noundef 1) #9
  %65 = icmp slt i64 %64, 0
  br i1 %65, label %.loopexit58, label %.lr.ph.i

.lr.ph.i:                                         ; preds = %._crit_edge
  %66 = getelementptr inbounds nuw i8, ptr %5, i64 16
  %67 = getelementptr inbounds nuw i8, ptr %5, i64 8
  %68 = getelementptr inbounds nuw i8, ptr %5, i64 24
  br label %69

69:                                               ; preds = %96, %.lr.ph.i
  %70 = phi i64 [ %64, %.lr.ph.i ], [ %97, %96 ]
  %.01635.i = phi ptr [ %35, %.lr.ph.i ], [ %71, %96 ]
  %.01834.i = phi i64 [ %36, %.lr.ph.i ], [ %72, %96 ]
  %71 = getelementptr inbounds nuw i8, ptr %.01635.i, i64 %70
  %72 = sub i64 %.01834.i, %70
  %73 = load i32, ptr %6, align 4, !tbaa !25
  %74 = and i32 %73, 2
  %.not.i = icmp eq i32 %74, 0
  br i1 %.not.i, label %87, label %75

75:                                               ; preds = %69
  %76 = load ptr, ptr %5, align 8, !tbaa !20
  %77 = load i64, ptr %66, align 8, !tbaa !13
  %78 = load ptr, ptr @stderr, align 8, !tbaa !4
  %79 = call i64 @fwrite(ptr noundef %76, i64 noundef 1, i64 noundef %77, ptr noundef %78) #13
  %80 = load ptr, ptr @stderr, align 8, !tbaa !4
  %81 = call i64 @fwrite(ptr nonnull @.str.16, i64 2, i64 1, ptr %80) #13
  %82 = load ptr, ptr %67, align 8, !tbaa !21
  %83 = load i64, ptr %68, align 8, !tbaa !17
  %84 = load ptr, ptr @stderr, align 8, !tbaa !4
  %85 = call i64 @fwrite(ptr noundef %82, i64 noundef 1, i64 noundef %83, ptr noundef %84) #13
  %86 = load ptr, ptr @stderr, align 8, !tbaa !4
  %fputc.i = call i32 @fputc(i32 10, ptr %86)
  %.pre.i = load i32, ptr %6, align 4, !tbaa !25
  br label %87

87:                                               ; preds = %75, %69
  %88 = phi i32 [ %.pre.i, %75 ], [ %73, %69 ]
  %89 = and i32 %88, 1
  %.not23.i = icmp eq i32 %89, 0
  br i1 %.not23.i, label %92, label %90

90:                                               ; preds = %87
  %91 = call i32 @nghttp2_hd_inflate_end_headers(ptr noundef %1) #9
  br label %.loopexit

92:                                               ; preds = %87
  %93 = and i32 %88, 2
  %94 = icmp eq i32 %93, 0
  %95 = icmp eq i64 %72, 0
  %or.cond.i = and i1 %95, %94
  br i1 %or.cond.i, label %.loopexit, label %96

96:                                               ; preds = %92
  call void @llvm.lifetime.end.p0(i64 4, ptr nonnull %6) #9
  call void @llvm.lifetime.end.p0(i64 40, ptr nonnull %5) #9
  call void @llvm.lifetime.start.p0(i64 40, ptr nonnull %5) #9
  call void @llvm.lifetime.start.p0(i64 4, ptr nonnull %6) #9
  store i32 0, ptr %6, align 4, !tbaa !25
  %97 = call i64 @nghttp2_hd_inflate_hd3(ptr noundef %1, ptr noundef nonnull %5, ptr noundef nonnull %6, ptr noundef %71, i64 noundef %72, i32 noundef 1) #9
  %98 = icmp slt i64 %97, 0
  br i1 %98, label %.loopexit58, label %69

.loopexit58:                                      ; preds = %96, %._crit_edge
  %.lcssa.i = phi i64 [ %64, %._crit_edge ], [ %97, %96 ]
  %99 = load ptr, ptr @stderr, align 8, !tbaa !4
  %100 = call i32 (ptr, ptr, ...) @fprintf(ptr noundef %99, ptr noundef nonnull @.str.24, i64 noundef %.lcssa.i) #10
  call void @llvm.lifetime.end.p0(i64 4, ptr nonnull %6) #9
  call void @llvm.lifetime.end.p0(i64 40, ptr nonnull %5) #9
  call void @free(ptr noundef %35) #9
  call void @exit(i32 noundef 1) #11
  unreachable

.loopexit:                                        ; preds = %92, %90
  call void @llvm.lifetime.end.p0(i64 4, ptr nonnull %6) #9
  call void @llvm.lifetime.end.p0(i64 40, ptr nonnull %5) #9
  %puts54 = call i32 @puts(ptr nonnull dereferenceable(1) @str.1)
  call void @free(ptr noundef %35) #9
  ret void
}